; Function Attrs: nounwind uwtable
define ptr @l_Lean_Elab_Tactic_GuardMsgs_revealTrailingWhitespace(ptr noundef %0) local_unnamed_addr #0 {
  %2 = load ptr, ptr @l_Lean_Elab_Tactic_GuardMsgs_revealTrailingWhitespace___closed__1, align 8, !tbaa !4
  %3 = load ptr, ptr @l_Lean_Elab_Tactic_GuardMsgs_revealTrailingWhitespace___closed__2, align 8, !tbaa !4
  %4 = tail call ptr @l_String_replace(ptr noundef %0, ptr noundef %2, ptr noundef %3) #7
  %5 = load ptr, ptr @l_Lean_Elab_Tactic_GuardMsgs_revealTrailingWhitespace___closed__3, align 8, !tbaa !4
  %6 = load ptr, ptr @l_Lean_Elab_Tactic_GuardMsgs_revealTrailingWhitespace___closed__4, align 8, !tbaa !4
  %7 = tail call ptr @l_String_replace(ptr noundef %4, ptr noundef %5, ptr noundef %6) #7
  %8 = ptrtoint ptr %4 to i64
  %9 = and i64 %8, 1
  %.not = icmp eq i64 %9, 0
  br i1 %.not, label %10, label %lean_dec.exit12

10:                                               ; preds = %1
  %11 = load i32, ptr %4, align 4, !tbaa !8
  %12 = icmp sgt i32 %11, 1
  br i1 %12, label %13, label %15, !prof !13

13:                                               ; preds = %10
  %14 = add nsw i32 %11, -1
  store i32 %14, ptr %4, align 4, !tbaa !8
  br label %lean_dec.exit12

15:                                               ; preds = %10
  %.not.i = icmp eq i32 %11, 0
  br i1 %.not.i, label %lean_dec.exit12, label %16

16:                                               ; preds = %15
  tail call void @lean_dec_ref_cold(ptr noundef nonnull %4) #7
  br label %lean_dec.exit12

lean_dec.exit12:                                  ; preds = %16, %15, %13, %1
  %17 = load ptr, ptr @l_Lean_Elab_Tactic_GuardMsgs_revealTrailingWhitespace___closed__5, align 8, !tbaa !4
  %18 = load ptr, ptr @l_Lean_Elab_Tactic_GuardMsgs_revealTrailingWhitespace___closed__6, align 8, !tbaa !4
  %19 = tail call ptr @l_String_replace(ptr noundef %7, ptr noundef %17, ptr noundef %18) #7
  %20 = ptrtoint ptr %7 to i64
  %21 = and i64 %20, 1
  %.not15 = icmp eq i64 %21, 0
  br i1 %.not15, label %22, label %lean_dec.exit

22:                                               ; preds = %lean_dec.exit12
  %23 = load i32, ptr %7, align 4, !tbaa !8
  %24 = icmp sgt i32 %23, 1
  br i1 %24, label %25, label %27, !prof !13

25:                                               ; preds = %22
  %26 = add nsw i32 %23, -1
  store i32 %26, ptr %7, align 4, !tbaa !8
  br label %lean_dec.exit

27:                                               ; preds = %22
  %.not.i13 = icmp eq i32 %23, 0
  br i1 %.not.i13, label %lean_dec.exit, label %28

28:                                               ; preds = %27
  tail call void @lean_dec_ref_cold(ptr noundef nonnull %7) #7
  br label %lean_dec.exit

lean_dec.exit:                                    ; preds = %28, %27, %25, %lean_dec.exit12
  ret ptr %19
}